target datalayout = "e-m:e-p270:32:32-p271:32:32-p272:64:64-i64:64-i128:128-f80:128-n8:16:32:64-S128"
target triple = "x86_64-unknown-linux-gnu"

%"class.sat::literal" = type { i32 }
%"class.sat::aig_cuts" = type { %class.random_gen, %"struct.sat::aig_cuts::config", %class.vector, %class.svector, %class.region, %"class.sat::cut_set", %"class.sat::cut_set", %"class.sat::cut_set", %class.vector.1, %class.svector.2, %class.svector.2, i32, i32, %class.svector.4, i32, %"class.std::function", %"class.std::function", %"class.std::function.6", %"class.std::function.6", %class.svector, [6 x ptr], [6 x i64], [6 x %"class.sat::literal"] }
%class.random_gen = type { i32 }
%"struct.sat::aig_cuts::config" = type <{ i32, i32, i32, i8, [3 x i8] }>
%class.vector = type { ptr }
%class.region = type { ptr, ptr, ptr, ptr, ptr }
%"class.sat::cut_set" = type { i32, ptr, i32, i32, ptr }
%class.vector.1 = type { ptr }
%class.svector.2 = type { %class.vector.3 }
%class.vector.3 = type { ptr }
%class.svector.4 = type { %class.vector.5 }
%class.vector.5 = type { ptr }
%"class.std::function" = type { %"class.std::_Function_base", ptr }
%"class.std::_Function_base" = type { %"union.std::_Any_data", ptr }
%"union.std::_Any_data" = type { %"union.std::_Nocopy_types" }
%"union.std::_Nocopy_types" = type { { i64, i64 } }
%"class.std::function.6" = type { %"class.std::_Function_base", ptr }
%class.svector = type { %class.vector.0 }
%class.vector.0 = type { ptr }

; Function Attrs: noreturn nounwind uwtable
define linkonce_odr hidden void @__clang_call_terminate(ptr noundef %0) #8 comdat {
  %2 = call ptr @__cxa_begin_catch(ptr %0) #3
  call void @_ZSt9terminatev() #14
  unreachable
}

; Function Attrs: mustprogress nounwind uwtable
define linkonce_odr hidden noundef zeroext i1 @_ZNKSt14_Function_base8_M_emptyEv(ptr noundef nonnull align 8 dereferenceable(24) %this) #4 comdat align 2 {
entry:
  %this.addr = alloca ptr, align 8
  store ptr %this, ptr %this.addr, align 8
  %this1 = load ptr, ptr %this.addr, align 8
  %_M_manager = getelementptr inbounds %"class.std::_Function_base", ptr %this1, i32 0, i32 1
  %0 = load ptr, ptr %_M_manager, align 8
  %tobool = icmp ne ptr %0, null
  %lnot = xor i1 %tobool, true
  ret i1 %lnot
}

; Function Attrs: mustprogress nounwind uwtable
define linkonce_odr hidden void @_ZN3sat7literalC2Ejb(ptr noundef nonnull align 4 dereferenceable(4) %this, i32 noundef %v, i1 noundef zeroext %_sign) unnamed_addr #4 comdat align 2 {
entry:
  %this.addr = alloca ptr, align 8
  %v.addr = alloca i32, align 4
  %_sign.addr = alloca i8, align 1
  store ptr %this, ptr %this.addr, align 8
  store i32 %v, ptr %v.addr, align 4
  %frombool = zext i1 %_sign to i8
  store i8 %frombool, ptr %_sign.addr, align 1
  %this1 = load ptr, ptr %this.addr, align 8
  %m_val = getelementptr inbounds %"class.sat::literal", ptr %this1, i32 0, i32 0
  %0 = load i32, ptr %v.addr, align 4
  %shl = shl i32 %0, 1
  %1 = load i8, ptr %_sign.addr, align 1
  %tobool = trunc i8 %1 to i1
  %conv = zext i1 %tobool to i32
  %add = add i32 %shl, %conv
  store i32 %add, ptr %m_val, align 4
  ret void
}

; Function Attrs: mustprogress nounwind uwtable
define linkonce_odr hidden noundef zeroext i1 @_ZNKSt8functionIFvRK7svectorIN3sat7literalEjEEEcvbEv(ptr noundef nonnull align 8 dereferenceable(32) %this) #4 comdat align 2 personality ptr @__gxx_personality_v0 {
entry:
  %this.addr = alloca ptr, align 8
  store ptr %this, ptr %this.addr, align 8
  %this1 = load ptr, ptr %this.addr, align 8
  %call = invoke noundef zeroext i1 @_ZNKSt14_Function_base8_M_emptyEv(ptr noundef nonnull align 8 dereferenceable(24) %this1)
          to label %invoke.cont unwind label %terminate.lpad

invoke.cont:                                      ; preds = %entry
  %lnot = xor i1 %call, true
  ret i1 %lnot

terminate.lpad:                                   ; preds = %entry
  %0 = landingpad { ptr, i32 }
          catch ptr null
  %1 = extractvalue { ptr, i32 } %0, 0
  call void @__clang_call_terminate(ptr %1) #14
  unreachable
}

; Function Attrs: mustprogress uwtable
define hidden void @_ZN3sat8aig_cuts11on_node_addEjRKNS0_4nodeE(ptr noundef nonnull align 8 dereferenceable(480) %this, i32 noundef %v, ptr noundef nonnull align 8 dereferenceable(24) %n) #5 align 2 {
entry:
  %this.addr = alloca ptr, align 8
  %v.addr = alloca i32, align 4
  %n.addr = alloca ptr, align 8
  %agg.tmp = alloca %"class.sat::literal", align 4
  store ptr %this, ptr %this.addr, align 8
  store i32 %v, ptr %v.addr, align 4
  store ptr %n, ptr %n.addr, align 8
  %this1 = load ptr, ptr %this.addr, align 8
  %m_on_clause_add = getelementptr inbounds %"class.sat::aig_cuts", ptr %this1, i32 0, i32 15
  %call = call noundef zeroext i1 @_ZNKSt8functionIFvRK7svectorIN3sat7literalEjEEEcvbEv(ptr noundef nonnull align 8 dereferenceable(32) %m_on_clause_add) #3
  br i1 %call, label %if.then, label %if.end

if.then:                                          ; preds = %entry
  %m_on_clause_add2 = getelementptr inbounds %"class.sat::aig_cuts", ptr %this1, i32 0, i32 15
  %0 = load ptr, ptr %n.addr, align 8
  %1 = load i32, ptr %v.addr, align 4
  call void @_ZN3sat7literalC2Ejb(ptr noundef nonnull align 4 dereferenceable(4) %agg.tmp, i32 noundef %1, i1 noundef zeroext false)
  %coerce.dive = getelementptr inbounds %"class.sat::literal", ptr %agg.tmp, i32 0, i32 0
  %2 = load i32, ptr %coerce.dive, align 4
  call void @_ZN3sat8aig_cuts8node2defERSt8functionIFvRK7svectorINS_7literalEjEEERKNS0_4nodeES3_(ptr noundef nonnull align 8 dereferenceable(480) %this1, ptr noundef nonnull align 8 dereferenceable(32) %m_on_clause_add2, ptr noundef nonnull align 8 dereferenceable(24) %0, i32 %2)
  br label %if.end

if.end:                                           ; preds = %if.then, %entry
  ret void
}