; Function Attrs: mustprogress uwtable
define hidden void @_ZN3sat8aig_cuts11on_node_addEjRKNS0_4nodeE(ptr noundef nonnull align 8 dereferenceable(480) %this, i32 noundef %v, ptr nocapture noundef nonnull readonly align 8 dereferenceable(24) %n) local_unnamed_addr #3 align 2 personality ptr @__gxx_personality_v0 {
entry:
  %_M_manager.i.i = getelementptr inbounds i8, ptr %this, i64 240
  %0 = load ptr, ptr %_M_manager.i.i, align 8
  %tobool.not.i.i.not = icmp eq ptr %0, null
  br i1 %tobool.not.i.i.not, label %if.end, label %if.then

if.then:                                          ; preds = %entry
  %m_on_clause_add = getelementptr inbounds i8, ptr %this, i64 224
  %shl.i = shl i32 %v, 1
  tail call void @_ZN3sat8aig_cuts8node2defERSt8functionIFvRK7svectorINS_7literalEjEEERKNS0_4nodeES3_(ptr noundef nonnull align 8 dereferenceable(480) %this, ptr noundef nonnull align 8 dereferenceable(32) %m_on_clause_add, ptr noundef nonnull align 8 dereferenceable(24) %n, i32 %shl.i)
  br label %if.end

if.end:                                           ; preds = %if.then, %entry
  ret void
}